target datalayout = "e-m:e-p270:32:32-p271:32:32-p272:64:64-i64:64-i128:128-f80:128-n8:16:32:64-S128"
target triple = "x86_64-pc-linux-gnu"

%struct.URLContext = type { ptr, ptr, ptr, ptr, i32, i32, i32, i32, %struct.AVIOInterruptCB, i64, ptr, ptr, i32 }
%struct.AVIOInterruptCB = type { ptr, ptr }
%struct.TCPContext = type { ptr, i32, i32, ptr, ptr, i32, i32, i32, i32, i32, i32, i32 }

; Function Attrs: nounwind uwtable
define internal i32 @tcp_shutdown(ptr noundef %0, i32 noundef %1) #0 {
  %3 = alloca ptr, align 8
  %4 = alloca i32, align 4
  %5 = alloca ptr, align 8
  %6 = alloca i32, align 4
  store ptr %0, ptr %3, align 8, !tbaa !4
  store i32 %1, ptr %4, align 4, !tbaa !11
  call void @llvm.lifetime.start.p0(i64 8, ptr %5) #9
  %7 = load ptr, ptr %3, align 8, !tbaa !4
  %8 = getelementptr inbounds nuw %struct.URLContext, ptr %7, i32 0, i32 2
  %9 = load ptr, ptr %8, align 8, !tbaa !13
  store ptr %9, ptr %5, align 8, !tbaa !19
  call void @llvm.lifetime.start.p0(i64 4, ptr %6) #9
  %10 = load i32, ptr %4, align 4, !tbaa !11
  %11 = and i32 %10, 2
  %12 = icmp ne i32 %11, 0
  br i1 %12, label %13, label %18

13:                                               ; preds = %2
  %14 = load i32, ptr %4, align 4, !tbaa !11
  %15 = and i32 %14, 1
  %16 = icmp ne i32 %15, 0
  br i1 %16, label %17, label %18

17:                                               ; preds = %13
  store i32 2, ptr %6, align 4, !tbaa !11
  br label %25

18:                                               ; preds = %13, %2
  %19 = load i32, ptr %4, align 4, !tbaa !11
  %20 = and i32 %19, 2
  %21 = icmp ne i32 %20, 0
  br i1 %21, label %22, label %23

22:                                               ; preds = %18
  store i32 1, ptr %6, align 4, !tbaa !11
  br label %24

23:                                               ; preds = %18
  store i32 0, ptr %6, align 4, !tbaa !11
  br label %24

24:                                               ; preds = %23, %22
  br label %25

25:                                               ; preds = %24, %17
  %26 = load ptr, ptr %5, align 8, !tbaa !19
  %27 = getelementptr inbounds nuw %struct.TCPContext, ptr %26, i32 0, i32 1
  %28 = load i32, ptr %27, align 8, !tbaa !51
  %29 = load i32, ptr %6, align 4, !tbaa !11
  %30 = call i32 @shutdown(i32 noundef %28, i32 noundef %29) #9
  call void @llvm.lifetime.end.p0(i64 4, ptr %6) #9
  call void @llvm.lifetime.end.p0(i64 8, ptr %5) #9
  ret i32 %30
}