; Function Attrs: nounwind uwtable
define internal i32 @tcp_shutdown(ptr noundef readonly captures(none) %0, i32 noundef %1) #0 {
  %3 = getelementptr inbounds nuw i8, ptr %0, i64 16
  %4 = load ptr, ptr %3, align 8, !tbaa !8
  %5 = and i32 %1, 3
  %or.cond.not = icmp eq i32 %5, 3
  %6 = lshr i32 %1, 1
  %.lobit = and i32 %6, 1
  %.0 = select i1 %or.cond.not, i32 2, i32 %.lobit
  %7 = getelementptr inbounds nuw i8, ptr %4, i64 8
  %8 = load i32, ptr %7, align 8, !tbaa !45
  %9 = tail call i32 @shutdown(i32 noundef %8, i32 noundef %.0) #12
  ret i32 %9
}